Certificate:
    Data:
        Version: 3 (0x2)
        Serial Number:
            42:3a:20:cb:24:fe:fa:6f:d4:ce:2b:01:b6:e7:c0:73
    Signature Algorithm: sha256WithRSAEncryption
        Issuer: C=RU, ST=NW, L=St. Petersburg, O=Grid Dynamics, OU=Engineering, CN=Easy-RSA CA/emailAddress=atimonin@griddynamics.com
        Validity
            Not Before: Sep 29 11:36:45 2021 GMT
            Not After : Jan  2 11:36:45 2024 GMT
        Subject: C=RU, ST=NW, L=St. Petersburg, O=Grid Dynamics, OU=Engineering, CN=atimonin/emailAddress=atimonin@griddynamics.com
        Subject Public Key Info:
            Public Key Algorithm: rsaEncryption
                Public-Key: (2048 bit)
                Modulus:
                    00:ad:1c:62:28:9c:92:75:8c:44:a7:77:92:c8:be:
                    80:d3:f6:61:e9:12:87:86:4f:05:4f:0f:b3:cb:8e:
                    62:0c:4f:49:ac:c2:66:aa:d1:03:87:9e:fb:e3:69:
                    87:12:eb:9b:fa:04:2c:99:72:d6:e8:7b:6e:7e:1a:
                    82:ba:74:30:3b:3f:8e:0d:08:ca:4a:b0:c6:e0:d7:
                    c5:e8:3c:5c:52:2c:6f:99:4d:7a:1c:52:09:3f:90:
                    bc:d0:80:dd:40:de:99:d6:7d:3b:2e:20:17:53:7b:
                    a2:6d:3a:2f:8a:fc:c5:55:9c:d1:7c:e2:dc:42:02:
                    1f:d5:96:87:41:8c:34:1a:49:1b:2c:90:0f:dd:66:
                    c0:e5:c2:0f:0a:6a:ac:ec:33:da:04:a3:bf:43:e1:
                    3b:f1:18:17:a5:87:ec:ed:8f:f7:52:ab:df:e6:42:
                    ad:aa:09:de:9e:05:cb:60:43:7e:2b:5f:63:1d:b5:
                    5b:62:09:8c:7e:9b:69:0f:ca:94:87:2b:ac:d8:18:
                    0a:b5:92:04:16:0a:9e:56:27:fc:21:80:46:2d:86:
                    42:fe:d2:8e:fe:c4:e3:0b:b0:40:14:c0:6c:02:5b:
                    cf:72:d6:41:a0:f4:80:40:47:39:78:74:f2:de:a6:
                    2c:f7:7e:16:a5:90:87:17:ec:b7:f7:ef:3e:77:dd:
                    1b:3d
                Exponent: 65537 (0x10001)
        X509v3 extensions:
            X509v3 Basic Constraints: 
                CA:FALSE
            X509v3 Subject Key Identifier: 
                C7:DE:B1:B3:C8:91:22:85:4F:B9:4B:81:77:C7:10:54:04:64:8B:3B
            X509v3 Authority Key Identifier: 
                keyid:0E:43:A2:7C:D5:4F:FC:4D:F8:12:AA:8B:7E:54:AA:33:14:57:BD:7E
                DirName:/C=RU/ST=NW/L=St. Petersburg/O=Grid Dynamics/OU=Engineering/CN=Easy-RSA CA/emailAddress=atimonin@griddynamics.com
                serial:FA:6D:24:C5:2E:CB:FD:8A

            X509v3 Extended Key Usage: 
                TLS Web Client Authentication
            X509v3 Key Usage: 
                Digital Signature
    Signature Algorithm: sha256WithRSAEncryption
         77:7f:ae:3a:a6:1f:88:5c:ec:13:a4:88:c8:21:11:f3:a3:57:
         af:8a:24:64:89:14:64:1b:73:e6:40:e4:fa:df:d2:6d:9d:2f:
         82:59:7f:ac:5c:fc:a5:b8:b3:aa:a3:f8:7e:1e:0d:b7:c3:5c:
         c1:48:4c:16:00:99:74:21:89:1c:ce:37:f2:11:72:a6:27:12:
         ce:8e:83:8b:d4:49:90:8f:05:36:ad:80:72:2b:98:ea:07:fe:
         f5:49:ce:cc:b9:46:8c:11:af:c8:e3:90:20:4e:d5:95:1d:9c:
         62:7b:8c:b2:4b:7c:62:c0:a9:76:d2:93:12:56:9d:f4:41:44:
         3a:ed:4e:de:b8:9d:83:c8:65:36:70:7a:16:78:1b:72:31:bf:
         92:cb:b5:d8:09:ae:90:17:62:6f:98:3b:bf:b2:40:49:db:52:
         c3:33:95:8d:cf:fc:3f:ea:0a:a4:f1:95:f3:4f:14:98:ad:b9:
         4c:7b:a3:88:c8:08:b1:f3:e9:1d:70:6d:ef:3e:3f:82:fe:6f:
         59:bf:81:5b:75:24:0d:3a:07:e6:37:fa:35:59:45:1d:0c:32:
         fc:ff:f1:76:4f:ff:1e:2b:eb:75:d7:af:c6:77:c1:5d:d8:51:
         8c:2a:7e:97:35:0e:68:2b:5c:41:bd:b9:1d:c4:8b:0a:1f:47:
         21:26:29:a8
-----BEGIN CERTIFICATE-----
MIIE9jCCA96gAwIBAgIQQjogyyT++m/UzisBtufAczANBgkqhkiG9w0BAQsFADCB
oTELMAkGA1UEBhMCUlUxCzAJBgNVBAgMAk5XMRcwFQYDVQQHDA5TdC4gUGV0ZXJz
YnVyZzEWMBQGA1UECgwNR3JpZCBEeW5hbWljczEUMBIGA1UECwwLRW5naW5lZXJp
bmcxFDASBgNVBAMMC0Vhc3ktUlNBIENBMSgwJgYJKoZIhvcNAQkBFhlhdGltb25p
bkBncmlkZHluYW1pY3MuY29tMB4XDTIxMDkyOTExMzY0NVoXDTI0MDEwMjExMzY0
NVowgZ4xCzAJBgNVBAYTAlJVMQswCQYDVQQIDAJOVzEXMBUGA1UEBwwOU3QuIFBl
dGVyc2J1cmcxFjAUBgNVBAoMDUdyaWQgRHluYW1pY3MxFDASBgNVBAsMC0VuZ2lu
ZWVyaW5nMREwDwYDVQQDDAhhdGltb25pbjEoMCYGCSqGSIb3DQEJARYZYXRpbW9u
aW5AZ3JpZGR5bmFtaWNzLmNvbTCCASIwDQYJKoZIhvcNAQEBBQADggEPADCCAQoC
ggEBAK0cYiicknWMRKd3ksi+gNP2YekSh4ZPBU8Ps8uOYgxPSazCZqrRA4ee++Np
hxLrm/oELJly1uh7bn4agrp0MDs/jg0IykqwxuDXxeg8XFIsb5lNehxSCT+QvNCA
3UDemdZ9Oy4gF1N7om06L4r8xVWc0Xzi3EICH9WWh0GMNBpJGyyQD91mwOXCDwpq
rOwz2gSjv0PhO/EYF6WH7O2P91Kr3+ZCraoJ3p4Fy2BDfitfYx21W2IJjH6baQ/K
lIcrrNgYCrWSBBYKnlYn/CGARi2GQv7Sjv7E4wuwQBTAbAJbz3LWQaD0gEBHOXh0
8t6mLPd+FqWQhxfst/fvPnfdGz0CAwEAAaOCASkwggElMAkGA1UdEwQCMAAwHQYD
VR0OBBYEFMfesbPIkSKFT7lLgXfHEFQEZIs7MIHWBgNVHSMEgc4wgcuAFA5DonzV
T/xN+BKqi35UqjMUV71+oYGnpIGkMIGhMQswCQYDVQQGEwJSVTELMAkGA1UECAwC
TlcxFzAVBgNVBAcMDlN0LiBQZXRlcnNidXJnMRYwFAYDVQQKDA1HcmlkIER5bmFt
aWNzMRQwEgYDVQQLDAtFbmdpbmVlcmluZzEUMBIGA1UEAwwLRWFzeS1SU0EgQ0Ex
KDAmBgkqhkiG9w0BCQEWGWF0aW1vbmluQGdyaWRkeW5hbWljcy5jb22CCQD6bSTF
Lsv9ijATBgNVHSUEDDAKBggrBgEFBQcDAjALBgNVHQ8EBAMCB4AwDQYJKoZIhvcN
AQELBQADggEBAHd/rjqmH4hc7BOkiMghEfOjV6+KJGSJFGQbc+ZA5Prf0m2dL4JZ
f6xc/KW4s6qj+H4eDbfDXMFITBYAmXQhiRzON/IRcqYnEs6Og4vUSZCPBTatgHIr
mOoH/vVJzsy5RowRr8jjkCBO1ZUdnGJ7jLJLfGLAqXbSkxJWnfRBRDrtTt64nYPI
ZTZwehZ4G3Ixv5LLtdgJrpAXYm+YO7+yQEnbUsMzlY3P/D/qCqTxlfNPFJituUx7
o4jICLHz6R1wbe8+P4L+b1m/gVt1JA06B+Y3+jVZRR0MMvz/8XZP/x4r63XXr8Z3
wV3YUYwqfpc1DmgrXEG9uR3EiwofRyEmKag=
-----END CERTIFICATE-----
