Certificate:
    Data:
        Version: 3 (0x2)
        Serial Number:
            b6:80:9c:ba:77:48:b7:bc:b8:42:e7:4d:30:24:a2:2f
    Signature Algorithm: sha256WithRSAEncryption
        Issuer: C=RU, ST=NW, L=St. Petersburg, O=Grid Dynamics, OU=Engineering, CN=Easy-RSA CA/emailAddress=atimonin@griddynamics.com
        Validity
            Not Before: Sep 29 11:31:16 2021 GMT
            Not After : Jan  2 11:31:16 2024 GMT
        Subject: C=RU, ST=NW, L=St. Petersburg, O=Grid Dynamics, OU=Engineering, CN=aws-endpoint/emailAddress=atimonin@griddynamics.com
        Subject Public Key Info:
            Public Key Algorithm: rsaEncryption
                Public-Key: (2048 bit)
                Modulus:
                    00:dd:5a:ce:b3:f2:22:0d:ab:21:3f:84:48:44:1b:
                    82:21:d2:8a:d2:9a:34:96:03:a2:14:91:7c:6b:7c:
                    35:c0:1a:5c:8c:4a:d4:8b:af:0d:60:aa:7a:36:97:
                    47:f7:66:53:8f:af:d7:15:6d:0d:18:75:87:2d:29:
                    3c:b2:d0:77:63:6d:a1:f1:40:0c:76:3a:61:4c:d0:
                    7d:85:0d:ef:bb:0c:54:52:05:46:57:d2:4f:75:b4:
                    b4:15:fa:88:06:e7:70:bd:93:1b:a8:b6:ab:8e:da:
                    c9:20:08:f9:b8:3a:3f:87:38:68:39:06:c8:11:38:
                    99:0b:c9:9f:41:e1:4d:5c:78:ac:6d:2d:86:e2:69:
                    5e:c1:98:25:23:22:88:d4:a1:c5:53:65:fa:86:ea:
                    a0:78:22:22:c9:f4:b7:d8:a4:86:23:f5:e1:b9:d5:
                    16:99:09:d2:ec:af:8b:70:0f:b6:34:63:0f:94:9f:
                    9d:af:f5:32:3d:8c:ec:54:06:ba:e5:aa:0e:d1:db:
                    8e:b4:a2:1e:04:0f:36:34:37:79:93:90:63:3d:ff:
                    6a:c3:3d:18:5f:81:cb:1c:3e:f8:c0:54:4e:72:54:
                    24:91:92:be:54:91:5a:2d:d3:c2:f0:c3:ba:86:97:
                    03:d5:16:91:16:a7:aa:ee:5a:24:83:08:7b:d3:ed:
                    67:01
                Exponent: 65537 (0x10001)
        X509v3 extensions:
            X509v3 Basic Constraints: 
                CA:FALSE
            X509v3 Subject Key Identifier: 
                31:49:1E:56:6F:1A:49:AD:CC:8C:8E:E9:20:B7:D2:29:25:12:E2:C7
            X509v3 Authority Key Identifier: 
                keyid:0E:43:A2:7C:D5:4F:FC:4D:F8:12:AA:8B:7E:54:AA:33:14:57:BD:7E
                DirName:/C=RU/ST=NW/L=St. Petersburg/O=Grid Dynamics/OU=Engineering/CN=Easy-RSA CA/emailAddress=atimonin@griddynamics.com
                serial:FA:6D:24:C5:2E:CB:FD:8A

            X509v3 Extended Key Usage: 
                TLS Web Server Authentication
            X509v3 Key Usage: 
                Digital Signature, Key Encipherment
            X509v3 Subject Alternative Name: 
                DNS:aws-endpoint
    Signature Algorithm: sha256WithRSAEncryption
         07:75:34:5c:19:f3:64:b7:24:51:3e:9b:4a:85:df:02:c8:e0:
         0e:44:35:87:da:e8:87:d6:ab:b3:80:c6:af:78:23:02:9c:51:
         c4:aa:09:f5:65:0b:3c:50:23:ff:d1:55:ae:a9:c9:ba:1e:77:
         76:ff:6a:dc:81:6f:03:f0:31:15:b4:ea:4a:8c:4d:cf:81:b6:
         46:e8:f8:3c:1b:1c:05:7b:7c:28:84:de:f8:65:11:6b:f4:32:
         8c:8e:8b:aa:2a:97:a9:9c:1c:e1:2a:33:1f:6d:e8:cd:13:cc:
         c2:5a:1d:ef:b3:f9:9d:e2:73:2d:21:34:fb:a7:50:be:c9:f6:
         2c:16:0b:64:10:8e:68:8a:30:d3:14:60:23:c1:f1:a4:4f:58:
         da:26:01:bf:f6:74:b8:8d:a7:e8:54:33:e8:9e:6d:18:a1:72:
         8a:89:5c:e4:e5:81:1f:32:24:32:2d:82:75:43:e6:5d:56:d7:
         fc:8b:01:c4:24:9f:3e:9b:b9:59:88:31:51:d6:3a:07:b0:a6:
         de:a3:3a:dc:49:e3:13:b9:b9:ff:cc:c4:12:d0:31:ff:c9:44:
         f4:6f:67:87:ae:a6:d6:69:5d:25:85:5b:64:69:68:3e:44:6a:
         39:00:f0:27:9c:ee:2f:2b:74:ec:dd:97:68:46:30:98:fd:36:
         70:a5:1b:c9
-----BEGIN CERTIFICATE-----
MIIFFDCCA/ygAwIBAgIRALaAnLp3SLe8uELnTTAkoi8wDQYJKoZIhvcNAQELBQAw
gaExCzAJBgNVBAYTAlJVMQswCQYDVQQIDAJOVzEXMBUGA1UEBwwOU3QuIFBldGVy
c2J1cmcxFjAUBgNVBAoMDUdyaWQgRHluYW1pY3MxFDASBgNVBAsMC0VuZ2luZWVy
aW5nMRQwEgYDVQQDDAtFYXN5LVJTQSBDQTEoMCYGCSqGSIb3DQEJARYZYXRpbW9u
aW5AZ3JpZGR5bmFtaWNzLmNvbTAeFw0yMTA5MjkxMTMxMTZaFw0yNDAxMDIxMTMx
MTZaMIGiMQswCQYDVQQGEwJSVTELMAkGA1UECAwCTlcxFzAVBgNVBAcMDlN0LiBQ
ZXRlcnNidXJnMRYwFAYDVQQKDA1HcmlkIER5bmFtaWNzMRQwEgYDVQQLDAtFbmdp
bmVlcmluZzEVMBMGA1UEAwwMYXdzLWVuZHBvaW50MSgwJgYJKoZIhvcNAQkBFhlh
dGltb25pbkBncmlkZHluYW1pY3MuY29tMIIBIjANBgkqhkiG9w0BAQEFAAOCAQ8A
MIIBCgKCAQEA3VrOs/IiDashP4RIRBuCIdKK0po0lgOiFJF8a3w1wBpcjErUi68N
YKp6NpdH92ZTj6/XFW0NGHWHLSk8stB3Y22h8UAMdjphTNB9hQ3vuwxUUgVGV9JP
dbS0FfqIBudwvZMbqLarjtrJIAj5uDo/hzhoOQbIETiZC8mfQeFNXHisbS2G4mle
wZglIyKI1KHFU2X6huqgeCIiyfS32KSGI/XhudUWmQnS7K+LcA+2NGMPlJ+dr/Uy
PYzsVAa65aoO0duOtKIeBA82NDd5k5BjPf9qwz0YX4HLHD74wFROclQkkZK+VJFa
LdPC8MO6hpcD1RaRFqeq7lokgwh70+1nAQIDAQABo4IBQjCCAT4wCQYDVR0TBAIw
ADAdBgNVHQ4EFgQUMUkeVm8aSa3MjI7pILfSKSUS4scwgdYGA1UdIwSBzjCBy4AU
DkOifNVP/E34EqqLflSqMxRXvX6hgaekgaQwgaExCzAJBgNVBAYTAlJVMQswCQYD
VQQIDAJOVzEXMBUGA1UEBwwOU3QuIFBldGVyc2J1cmcxFjAUBgNVBAoMDUdyaWQg
RHluYW1pY3MxFDASBgNVBAsMC0VuZ2luZWVyaW5nMRQwEgYDVQQDDAtFYXN5LVJT
QSBDQTEoMCYGCSqGSIb3DQEJARYZYXRpbW9uaW5AZ3JpZGR5bmFtaWNzLmNvbYIJ
APptJMUuy/2KMBMGA1UdJQQMMAoGCCsGAQUFBwMBMAsGA1UdDwQEAwIFoDAXBgNV
HREEEDAOggxhd3MtZW5kcG9pbnQwDQYJKoZIhvcNAQELBQADggEBAAd1NFwZ82S3
JFE+m0qF3wLI4A5ENYfa6IfWq7OAxq94IwKcUcSqCfVlCzxQI//RVa6pyboed3b/
atyBbwPwMRW06kqMTc+Btkbo+DwbHAV7fCiE3vhlEWv0MoyOi6oql6mcHOEqMx9t
6M0TzMJaHe+z+Z3icy0hNPunUL7J9iwWC2QQjmiKMNMUYCPB8aRPWNomAb/2dLiN
p+hUM+iebRihcoqJXOTlgR8yJDItgnVD5l1W1/yLAcQknz6buVmIMVHWOgewpt6j
OtxJ4xO5uf/MxBLQMf/JRPRvZ4euptZpXSWFW2RpaD5EajkA8Cec7i8rdOzdl2hG
MJj9NnClG8k=
-----END CERTIFICATE-----
